Certificate:
    Data:
        Version: 3 (0x2)
        Serial Number: 1 (0x1)
        Signature Algorithm: sha1WithRSAEncryption
        Issuer: O=Grid, OU=GlobusTest, OU=simpleCA-swift-laptop, CN=Globus Simple CA
        Validity
            Not Before: Aug 31 20:07:52 2010 GMT
            Not After : Aug 31 20:07:52 2011 GMT
        Subject: O=Grid, OU=GlobusTest, OU=simpleCA-swift-laptop, CN=Swift Laptop
        Subject Public Key Info:
            Public Key Algorithm: rsaEncryption
            RSA Public Key: (1024 bit)
                Modulus (1024 bit):
                    00:c1:9a:15:08:a5:47:f1:05:04:cc:26:a5:a9:58:
                    24:40:67:04:27:45:05:2e:84:34:16:96:1a:b5:0a:
                    06:15:a1:fd:e4:c0:ef:aa:d5:8a:6f:3f:ba:64:ab:
                    9c:dd:e7:9e:73:23:5a:f3:64:cb:d3:14:a8:d4:3e:
                    65:68:ff:75:60:c7:a4:6a:f2:24:09:81:67:59:8c:
                    71:64:12:28:be:14:e6:00:fe:7a:ea:56:a4:65:91:
                    af:31:5c:f1:34:2a:22:0c:63:57:1f:bc:f8:85:b5:
                    08:5c:41:70:6c:d2:7b:d4:55:7d:b3:f8:20:c4:91:
                    57:17:f5:5c:fe:87:a0:bc:a1
                Exponent: 65537 (0x10001)
        X509v3 extensions:
            Netscape Cert Type: 
                SSL Client, SSL Server, S/MIME, Object Signing
    Signature Algorithm: sha1WithRSAEncryption
        4e:23:cd:8c:81:1b:2c:b2:3a:41:ba:7a:ee:83:a7:6a:24:ae:
        28:74:25:fb:58:8e:8e:7c:ed:f0:43:a8:11:c4:1c:06:f7:e1:
        1b:f0:cf:24:64:2c:93:ab:da:a3:93:a4:01:06:b6:33:ec:96:
        dd:92:f3:1c:c3:67:98:56:f2:ea:da:0d:3c:6c:b8:83:da:3b:
        46:74:64:56:a5:e6:65:5e:c4:9c:5b:7a:fc:f3:1b:46:13:2b:
        bc:76:32:c1:80:08:90:f1:c2:87:95:5c:a6:37:da:ae:d2:38:
        6c:35:d7:be:e2:92:fe:16:a9:a0:2f:b3:49:f4:8d:82:00:16:
        03:fb
-----BEGIN CERTIFICATE-----
MIICRTCCAa6gAwIBAgIBATANBgkqhkiG9w0BAQUFADBfMQ0wCwYDVQQKEwRHcmlk
MRMwEQYDVQQLEwpHbG9idXNUZXN0MR4wHAYDVQQLExVzaW1wbGVDQS1zd2lmdC1s
YXB0b3AxGTAXBgNVBAMTEEdsb2J1cyBTaW1wbGUgQ0EwHhcNMTAwODMxMjAwNzUy
WhcNMTEwODMxMjAwNzUyWjBbMQ0wCwYDVQQKEwRHcmlkMRMwEQYDVQQLEwpHbG9i
dXNUZXN0MR4wHAYDVQQLExVzaW1wbGVDQS1zd2lmdC1sYXB0b3AxFTATBgNVBAMT
DFN3aWZ0IExhcHRvcDCBnzANBgkqhkiG9w0BAQEFAAOBjQAwgYkCgYEAwZoVCKVH
8QUEzCalqVgkQGcEJ0UFLoQ0FpYatQoGFaH95MDvqtWKbz+6ZKuc3eeecyNa82TL
0xSo1D5laP91YMekavIkCYFnWYxxZBIovhTmAP566lakZZGvMVzxNCoiDGNXH7z4
hbUIXEFwbNJ71FV9s/ggxJFXF/Vc/oegvKECAwEAAaMVMBMwEQYJYIZIAYb4QgEB
BAQDAgTwMA0GCSqGSIb3DQEBBQUAA4GBAE4jzYyBGyyyOkG6eu6Dp2okrih0JftY
jo587fBDqBHEHAb34RvwzyRkLJOr2qOTpAEGtjPslt2S8xzDZ5hW8uraDTxsuIPa
O0Z0ZFal5mVexJxbevzzG0YTK7x2MsGACJDxwoeVXKY32q7SOGw1177ikv4WqaAv
s0n0jYIAFgP7
-----END CERTIFICATE-----
