Certificate:
    Data:
        Version: 3 (0x2)
        Serial Number: 1 (0x1)
        Signature Algorithm: md5WithRSAEncryption
        Issuer: O=Grid, OU=GlobusTest, OU=simpleCA-soju.hawaga.org.uk, CN=Globus Simple CA
        Validity
            Not Before: May 25 21:34:14 2008 GMT
            Not After : May 25 21:34:14 2009 GMT
        Subject: O=Grid, OU=GlobusTest, OU=simpleCA-soju.hawaga.org.uk, CN=host/coaster
        Subject Public Key Info:
            Public Key Algorithm: rsaEncryption
            RSA Public Key: (1024 bit)
                Modulus (1024 bit):
                    00:b3:de:77:44:30:44:44:9c:8a:81:24:cc:d2:0f:
                    7a:16:fd:7f:16:d2:51:a7:cf:b9:7f:25:8c:de:01:
                    78:77:67:94:48:6b:24:8b:3d:e9:1c:05:cd:79:7e:
                    1a:37:fa:7f:25:05:be:a2:2a:ee:8d:70:7a:73:02:
                    43:2e:61:91:25:39:a1:cc:60:d8:da:f2:d6:03:3a:
                    af:73:23:e2:42:26:3e:27:bc:dc:e5:5a:38:d1:bd:
                    35:1e:15:7a:39:48:7f:77:12:0c:d4:af:61:27:e2:
                    db:ae:c0:e2:76:1b:00:f6:be:a0:f6:41:05:d9:e3:
                    2c:be:d8:ce:4d:91:65:fd:d9
                Exponent: 65537 (0x10001)
        X509v3 extensions:
            Netscape Cert Type: 
                SSL Client, SSL Server, S/MIME, Object Signing
    Signature Algorithm: md5WithRSAEncryption
        7d:32:66:f6:25:97:5f:f9:89:a7:10:07:60:fd:2c:24:f9:37:
        b2:65:fc:a1:56:c2:ab:9e:d2:e2:5a:99:08:3f:5f:cd:13:69:
        0e:e0:67:fe:97:8a:d8:dd:e8:0d:23:3c:b5:04:8d:75:45:9e:
        10:35:98:d8:bd:82:7e:e1:54:65:65:d1:d2:e6:9e:e7:9d:5e:
        25:0d:3c:a2:81:ef:b8:ea:2d:6c:f0:fc:56:47:b5:a1:19:94:
        07:8c:7a:f9:26:dd:0c:b4:83:9c:d8:2a:f5:08:f2:68:5a:a6:
        bd:cf:02:2e:1f:b8:f5:37:ec:07:16:64:40:d6:38:80:98:f5:
        be:66
-----BEGIN CERTIFICATE-----
MIICUTCCAbqgAwIBAgIBATANBgkqhkiG9w0BAQQFADBlMQ0wCwYDVQQKEwRHcmlk
MRMwEQYDVQQLEwpHbG9idXNUZXN0MSQwIgYDVQQLExtzaW1wbGVDQS1zb2p1Lmhh
d2FnYS5vcmcudWsxGTAXBgNVBAMTEEdsb2J1cyBTaW1wbGUgQ0EwHhcNMDgwNTI1
MjEzNDE0WhcNMDkwNTI1MjEzNDE0WjBhMQ0wCwYDVQQKEwRHcmlkMRMwEQYDVQQL
EwpHbG9idXNUZXN0MSQwIgYDVQQLExtzaW1wbGVDQS1zb2p1Lmhhd2FnYS5vcmcu
dWsxFTATBgNVBAMTDGhvc3QvY29hc3RlcjCBnzANBgkqhkiG9w0BAQEFAAOBjQAw
gYkCgYEAs953RDBERJyKgSTM0g96Fv1/FtJRp8+5fyWM3gF4d2eUSGskiz3pHAXN
eX4aN/p/JQW+oirujXB6cwJDLmGRJTmhzGDY2vLWAzqvcyPiQiY+J7zc5Vo40b01
HhV6OUh/dxIM1K9hJ+LbrsDidhsA9r6g9kEF2eMsvtjOTZFl/dkCAwEAAaMVMBMw
EQYJYIZIAYb4QgEBBAQDAgTwMA0GCSqGSIb3DQEBBAUAA4GBAH0yZvYll1/5iacQ
B2D9LCT5N7Jl/KFWwque0uJamQg/X80TaQ7gZ/6Xitjd6A0jPLUEjXVFnhA1mNi9
gn7hVGVl0dLmnuedXiUNPKKB77jqLWzw/FZHtaEZlAeMevkm3Qy0g5zYKvUI8mha
pr3PAi4fuPU37AcWZEDWOICY9b5m
-----END CERTIFICATE-----
